; ModuleID = '63/964.c'
source_filename = "63/964.c"
target datalayout = "e-m:e-p270:32:32-p271:32:32-p272:64:64-i64:64-f80:128-n8:16:32:64-S128"
target triple = "x86_64-pc-linux-gnu"

@.str = private unnamed_addr constant [6 x i8] c"%d %d\00", align 1
@.str.1 = private unnamed_addr constant [3 x i8] c"%d\00", align 1
@.str.2 = private unnamed_addr constant [4 x i8] c"%d \00", align 1
@.str.3 = private unnamed_addr constant [4 x i8] c"%d\0A\00", align 1

; Function Attrs: noinline nounwind uwtable
define dso_local i32 @main() #0 {
  %1 = alloca i32, align 4
  %2 = alloca i32, align 4
  %3 = alloca i32, align 4
  %4 = alloca i32, align 4
  %5 = alloca i32, align 4
  %6 = alloca i32, align 4
  %7 = alloca i32, align 4
  %8 = alloca i32, align 4
  %9 = alloca [200 x [200 x i32]], align 16
  %10 = alloca [200 x [200 x i32]], align 16
  %11 = alloca [200 x [200 x i32]], align 16
  store i32 0, i32* %1, align 4
  %12 = bitcast [200 x [200 x i32]]* %9 to i8*
  call void @llvm.memset.p0i8.i64(i8* align 16 %12, i8 0, i64 160000, i1 false)
  %13 = bitcast [200 x [200 x i32]]* %10 to i8*
  call void @llvm.memset.p0i8.i64(i8* align 16 %13, i8 0, i64 160000, i1 false)
  %14 = bitcast [200 x [200 x i32]]* %11 to i8*
  call void @llvm.memset.p0i8.i64(i8* align 16 %14, i8 0, i64 160000, i1 false)
  %15 = call i32 (i8*, ...) @__isoc99_scanf(i8* getelementptr inbounds ([6 x i8], [6 x i8]* @.str, i64 0, i64 0), i32* %5, i32* %7)
  store i32 0, i32* %2, align 4
  br label %16

16:                                               ; preds = %39, %0
  %17 = load i32, i32* %2, align 4
  %18 = load i32, i32* %5, align 4
  %19 = sub nsw i32 %18, 1
  %20 = icmp sle i32 %17, %19
  br i1 %20, label %21, label %42

21:                                               ; preds = %16
  store i32 0, i32* %3, align 4
  br label %22

22:                                               ; preds = %35, %21
  %23 = load i32, i32* %3, align 4
  %24 = load i32, i32* %7, align 4
  %25 = sub nsw i32 %24, 1
  %26 = icmp sle i32 %23, %25
  br i1 %26, label %27, label %38

27:                                               ; preds = %22
  %28 = load i32, i32* %2, align 4
  %29 = sext i32 %28 to i64
  %30 = getelementptr inbounds [200 x [200 x i32]], [200 x [200 x i32]]* %9, i64 0, i64 %29
  %31 = load i32, i32* %3, align 4
  %32 = sext i32 %31 to i64
  %33 = getelementptr inbounds [200 x i32], [200 x i32]* %30, i64 0, i64 %32
  %34 = call i32 (i8*, ...) @__isoc99_scanf(i8* getelementptr inbounds ([3 x i8], [3 x i8]* @.str.1, i64 0, i64 0), i32* %33)
  br label %35

35:                                               ; preds = %27
  %36 = load i32, i32* %3, align 4
  %37 = add nsw i32 %36, 1
  store i32 %37, i32* %3, align 4
  br label %22

38:                                               ; preds = %22
  br label %39

39:                                               ; preds = %38
  %40 = load i32, i32* %2, align 4
  %41 = add nsw i32 %40, 1
  store i32 %41, i32* %2, align 4
  br label %16

42:                                               ; preds = %16
  %43 = call i32 (i8*, ...) @__isoc99_scanf(i8* getelementptr inbounds ([6 x i8], [6 x i8]* @.str, i64 0, i64 0), i32* %6, i32* %8)
  store i32 0, i32* %2, align 4
  br label %44

44:                                               ; preds = %67, %42
  %45 = load i32, i32* %2, align 4
  %46 = load i32, i32* %6, align 4
  %47 = sub nsw i32 %46, 1
  %48 = icmp sle i32 %45, %47
  br i1 %48, label %49, label %70

49:                                               ; preds = %44
  store i32 0, i32* %3, align 4
  br label %50

50:                                               ; preds = %63, %49
  %51 = load i32, i32* %3, align 4
  %52 = load i32, i32* %8, align 4
  %53 = sub nsw i32 %52, 1
  %54 = icmp sle i32 %51, %53
  br i1 %54, label %55, label %66

55:                                               ; preds = %50
  %56 = load i32, i32* %2, align 4
  %57 = sext i32 %56 to i64
  %58 = getelementptr inbounds [200 x [200 x i32]], [200 x [200 x i32]]* %10, i64 0, i64 %57
  %59 = load i32, i32* %3, align 4
  %60 = sext i32 %59 to i64
  %61 = getelementptr inbounds [200 x i32], [200 x i32]* %58, i64 0, i64 %60
  %62 = call i32 (i8*, ...) @__isoc99_scanf(i8* getelementptr inbounds ([3 x i8], [3 x i8]* @.str.1, i64 0, i64 0), i32* %61)
  br label %63

63:                                               ; preds = %55
  %64 = load i32, i32* %3, align 4
  %65 = add nsw i32 %64, 1
  store i32 %65, i32* %3, align 4
  br label %50

66:                                               ; preds = %50
  br label %67

67:                                               ; preds = %66
  %68 = load i32, i32* %2, align 4
  %69 = add nsw i32 %68, 1
  store i32 %69, i32* %2, align 4
  br label %44

70:                                               ; preds = %44
  store i32 0, i32* %2, align 4
  br label %71

71:                                               ; preds = %148, %70
  %72 = load i32, i32* %2, align 4
  %73 = load i32, i32* %5, align 4
  %74 = sub nsw i32 %73, 1
  %75 = icmp sle i32 %72, %74
  br i1 %75, label %76, label %151

76:                                               ; preds = %71
  store i32 0, i32* %3, align 4
  br label %77

77:                                               ; preds = %144, %76
  %78 = load i32, i32* %3, align 4
  %79 = load i32, i32* %8, align 4
  %80 = sub nsw i32 %79, 1
  %81 = icmp sle i32 %78, %80
  br i1 %81, label %82, label %147

82:                                               ; preds = %77
  store i32 0, i32* %4, align 4
  br label %83

83:                                               ; preds = %117, %82
  %84 = load i32, i32* %4, align 4
  %85 = load i32, i32* %7, align 4
  %86 = icmp sle i32 %84, %85
  br i1 %86, label %87, label %120

87:                                               ; preds = %83
  %88 = load i32, i32* %2, align 4
  %89 = sext i32 %88 to i64
  %90 = getelementptr inbounds [200 x [200 x i32]], [200 x [200 x i32]]* %11, i64 0, i64 %89
  %91 = load i32, i32* %3, align 4
  %92 = sext i32 %91 to i64
  %93 = getelementptr inbounds [200 x i32], [200 x i32]* %90, i64 0, i64 %92
  %94 = load i32, i32* %93, align 4
  %95 = load i32, i32* %2, align 4
  %96 = sext i32 %95 to i64
  %97 = getelementptr inbounds [200 x [200 x i32]], [200 x [200 x i32]]* %9, i64 0, i64 %96
  %98 = load i32, i32* %4, align 4
  %99 = sext i32 %98 to i64
  %100 = getelementptr inbounds [200 x i32], [200 x i32]* %97, i64 0, i64 %99
  %101 = load i32, i32* %100, align 4
  %102 = load i32, i32* %4, align 4
  %103 = sext i32 %102 to i64
  %104 = getelementptr inbounds [200 x [200 x i32]], [200 x [200 x i32]]* %10, i64 0, i64 %103
  %105 = load i32, i32* %3, align 4
  %106 = sext i32 %105 to i64
  %107 = getelementptr inbounds [200 x i32], [200 x i32]* %104, i64 0, i64 %106
  %108 = load i32, i32* %107, align 4
  %109 = mul nsw i32 %101, %108
  %110 = add nsw i32 %94, %109
  %111 = load i32, i32* %2, align 4
  %112 = sext i32 %111 to i64
  %113 = getelementptr inbounds [200 x [200 x i32]], [200 x [200 x i32]]* %11, i64 0, i64 %112
  %114 = load i32, i32* %3, align 4
  %115 = sext i32 %114 to i64
  %116 = getelementptr inbounds [200 x i32], [200 x i32]* %113, i64 0, i64 %115
  store i32 %110, i32* %116, align 4
  br label %117

117:                                              ; preds = %87
  %118 = load i32, i32* %4, align 4
  %119 = add nsw i32 %118, 1
  store i32 %119, i32* %4, align 4
  br label %83

120:                                              ; preds = %83
  %121 = load i32, i32* %3, align 4
  %122 = load i32, i32* %8, align 4
  %123 = sub nsw i32 %122, 1
  %124 = icmp slt i32 %121, %123
  br i1 %124, label %125, label %134

125:                                              ; preds = %120
  %126 = load i32, i32* %2, align 4
  %127 = sext i32 %126 to i64
  %128 = getelementptr inbounds [200 x [200 x i32]], [200 x [200 x i32]]* %11, i64 0, i64 %127
  %129 = load i32, i32* %3, align 4
  %130 = sext i32 %129 to i64
  %131 = getelementptr inbounds [200 x i32], [200 x i32]* %128, i64 0, i64 %130
  %132 = load i32, i32* %131, align 4
  %133 = call i32 (i8*, ...) @printf(i8* getelementptr inbounds ([4 x i8], [4 x i8]* @.str.2, i64 0, i64 0), i32 %132)
  br label %143

134:                                              ; preds = %120
  %135 = load i32, i32* %2, align 4
  %136 = sext i32 %135 to i64
  %137 = getelementptr inbounds [200 x [200 x i32]], [200 x [200 x i32]]* %11, i64 0, i64 %136
  %138 = load i32, i32* %3, align 4
  %139 = sext i32 %138 to i64
  %140 = getelementptr inbounds [200 x i32], [200 x i32]* %137, i64 0, i64 %139
  %141 = load i32, i32* %140, align 4
  %142 = call i32 (i8*, ...) @printf(i8* getelementptr inbounds ([4 x i8], [4 x i8]* @.str.3, i64 0, i64 0), i32 %141)
  br label %143

143:                                              ; preds = %134, %125
  br label %144

144:                                              ; preds = %143
  %145 = load i32, i32* %3, align 4
  %146 = add nsw i32 %145, 1
  store i32 %146, i32* %3, align 4
  br label %77

147:                                              ; preds = %77
  br label %148

148:                                              ; preds = %147
  %149 = load i32, i32* %2, align 4
  %150 = add nsw i32 %149, 1
  store i32 %150, i32* %2, align 4
  br label %71

151:                                              ; preds = %71
  ret i32 0
}

; Function Attrs: argmemonly nounwind willreturn
declare void @llvm.memset.p0i8.i64(i8* nocapture writeonly, i8, i64, i1 immarg) #1

declare dso_local i32 @__isoc99_scanf(i8*, ...) #2

declare dso_local i32 @printf(i8*, ...) #2


!llvm.module.flags = !{!0}
!llvm.ident = !{!1}

!0 = !{i32 1, !"wchar_size", i32 4}
!1 = !{!"clang version 10.0.0-4ubuntu1 "}
